; Function Attrs: mustprogress nounwind uwtable
define dso_local noundef range(i64 0, 256) i64 @_ZNK4llvm6object15XCOFFObjectFile17getRelocationTypeENS0_11DataRefImplE(ptr noundef nonnull align 8 dereferenceable(96) %0, i64 %1) unnamed_addr #0 align 2 {
  %3 = load ptr, ptr %0, align 8
  %4 = getelementptr inbounds i8, ptr %3, i64 64
  %5 = load ptr, ptr %4, align 8
  %6 = tail call noundef zeroext i1 %5(ptr noundef nonnull align 8 dereferenceable(96) %0) #23
  %7 = inttoptr i64 %1 to ptr
  %.0.in.in.v = select i1 %6, i64 13, i64 9
  %.0.in.in = getelementptr inbounds nuw i8, ptr %7, i64 %.0.in.in.v
  %.0.in = load i8, ptr %.0.in.in, align 1
  %.0 = zext i8 %.0.in to i64
  ret i64 %.0
}